; Function Attrs: mustprogress nounwind uwtable
define hidden noundef i32 @_ZNK7oopDesc17int_field_acquireEi(ptr noundef nonnull align 8 dereferenceable(16) %0, i32 noundef %1) local_unnamed_addr #0 align 2 {
  %3 = ptrtoint ptr %0 to i64
  %4 = sext i32 %1 to i64
  %5 = add nsw i64 %4, %3
  %6 = inttoptr i64 %5 to ptr
  %7 = load volatile i32, ptr %6, align 4
  tail call void asm sideeffect "", "~{memory},~{dirflag},~{fpsr},~{flags}"() #11, !srcloc !6
  ret i32 %7
}